target datalayout = "e-m:e-p270:32:32-p271:32:32-p272:64:64-i64:64-i128:128-f80:128-n8:16:32:64-S128"
target triple = "x86_64-unknown-linux-gnu"

%struct.V9fsState = type { %struct.anon, %struct.anon.0, ptr, ptr, %struct.FsContext, ptr, i32, i32, [128 x %struct.V9fsPDU], ptr, %struct.CoRwlock, i32, ptr, %struct.V9fsConf, %struct.stat, i64, %struct.qht, %struct.qht, %struct.qht, i64, i16, i64 }
%struct.anon = type { ptr }
%struct.anon.0 = type { ptr }
%struct.FsContext = type { i32, ptr, i32, ptr, %struct.ExtendedOps, ptr, ptr, i32, i32 }
%struct.ExtendedOps = type { ptr }
%struct.V9fsPDU = type { i32, i16, i8, i8, %struct.CoQueue, ptr, %struct.anon.2, i32 }
%struct.CoQueue = type { %struct.anon.1 }
%struct.anon.1 = type { ptr, ptr }
%struct.anon.2 = type { ptr, ptr }
%struct.CoRwlock = type { %struct.CoMutex, i32, %struct.anon.4 }
%struct.CoMutex = type { i32, ptr, %struct.anon.3, %struct.anon.3, i32, i32, ptr }
%struct.anon.3 = type { ptr }
%struct.anon.4 = type { ptr, ptr }
%struct.V9fsConf = type { ptr, ptr }
%struct.stat = type { i64, i64, i64, i32, i32, i32, i32, i64, i64, i64, i64, %struct.timespec, %struct.timespec, %struct.timespec, [3 x i64] }
%struct.timespec = type { i64, i64 }
%struct.qht = type { ptr, ptr, %struct.QemuMutex, i32 }
%struct.QemuMutex = type { %union.pthread_mutex_t, i8 }
%union.pthread_mutex_t = type { %struct.__pthread_mutex_s }
%struct.__pthread_mutex_s = type { i32, i32, i32, i32, i32, i16, i16, %struct.__pthread_internal_list }
%struct.__pthread_internal_list = type { ptr, ptr }

; Function Attrs: nounwind sspstrong uwtable
define dso_local ptr @pdu_alloc(ptr noundef %s) #0 {
entry:
  %s.addr = alloca ptr, align 8
  %pdu = alloca ptr, align 8
  store ptr %s, ptr %s.addr, align 8
  store ptr null, ptr %pdu, align 8
  %0 = load ptr, ptr %s.addr, align 8
  %free_list = getelementptr inbounds %struct.V9fsState, ptr %0, i32 0, i32 0
  %lh_first = getelementptr inbounds %struct.anon, ptr %free_list, i32 0, i32 0
  %1 = load ptr, ptr %lh_first, align 8
  %cmp = icmp eq ptr %1, null
  br i1 %cmp, label %if.end38, label %if.then

if.then:                                          ; preds = %entry
  %2 = load ptr, ptr %s.addr, align 8
  %free_list1 = getelementptr inbounds %struct.V9fsState, ptr %2, i32 0, i32 0
  %lh_first2 = getelementptr inbounds %struct.anon, ptr %free_list1, i32 0, i32 0
  %3 = load ptr, ptr %lh_first2, align 8
  store ptr %3, ptr %pdu, align 8
  br label %do.body

do.body:                                          ; preds = %if.then
  %4 = load ptr, ptr %pdu, align 8
  %next = getelementptr inbounds %struct.V9fsPDU, ptr %4, i32 0, i32 6
  %le_next = getelementptr inbounds %struct.anon.2, ptr %next, i32 0, i32 0
  %5 = load ptr, ptr %le_next, align 8
  %cmp3 = icmp ne ptr %5, null
  br i1 %cmp3, label %if.then4, label %if.end

if.then4:                                         ; preds = %do.body
  %6 = load ptr, ptr %pdu, align 8
  %next5 = getelementptr inbounds %struct.V9fsPDU, ptr %6, i32 0, i32 6
  %le_prev = getelementptr inbounds %struct.anon.2, ptr %next5, i32 0, i32 1
  %7 = load ptr, ptr %le_prev, align 8
  %8 = load ptr, ptr %pdu, align 8
  %next6 = getelementptr inbounds %struct.V9fsPDU, ptr %8, i32 0, i32 6
  %le_next7 = getelementptr inbounds %struct.anon.2, ptr %next6, i32 0, i32 0
  %9 = load ptr, ptr %le_next7, align 8
  %next8 = getelementptr inbounds %struct.V9fsPDU, ptr %9, i32 0, i32 6
  %le_prev9 = getelementptr inbounds %struct.anon.2, ptr %next8, i32 0, i32 1
  store ptr %7, ptr %le_prev9, align 8
  br label %if.end

if.end:                                           ; preds = %if.then4, %do.body
  %10 = load ptr, ptr %pdu, align 8
  %next10 = getelementptr inbounds %struct.V9fsPDU, ptr %10, i32 0, i32 6
  %le_next11 = getelementptr inbounds %struct.anon.2, ptr %next10, i32 0, i32 0
  %11 = load ptr, ptr %le_next11, align 8
  %12 = load ptr, ptr %pdu, align 8
  %next12 = getelementptr inbounds %struct.V9fsPDU, ptr %12, i32 0, i32 6
  %le_prev13 = getelementptr inbounds %struct.anon.2, ptr %next12, i32 0, i32 1
  %13 = load ptr, ptr %le_prev13, align 8
  store ptr %11, ptr %13, align 8
  %14 = load ptr, ptr %pdu, align 8
  %next14 = getelementptr inbounds %struct.V9fsPDU, ptr %14, i32 0, i32 6
  %le_next15 = getelementptr inbounds %struct.anon.2, ptr %next14, i32 0, i32 0
  store ptr null, ptr %le_next15, align 8
  %15 = load ptr, ptr %pdu, align 8
  %next16 = getelementptr inbounds %struct.V9fsPDU, ptr %15, i32 0, i32 6
  %le_prev17 = getelementptr inbounds %struct.anon.2, ptr %next16, i32 0, i32 1
  store ptr null, ptr %le_prev17, align 8
  br label %do.end

do.end:                                           ; preds = %if.end
  br label %do.body18

do.body18:                                        ; preds = %do.end
  %16 = load ptr, ptr %s.addr, align 8
  %active_list = getelementptr inbounds %struct.V9fsState, ptr %16, i32 0, i32 1
  %lh_first19 = getelementptr inbounds %struct.anon.0, ptr %active_list, i32 0, i32 0
  %17 = load ptr, ptr %lh_first19, align 8
  %18 = load ptr, ptr %pdu, align 8
  %next20 = getelementptr inbounds %struct.V9fsPDU, ptr %18, i32 0, i32 6
  %le_next21 = getelementptr inbounds %struct.anon.2, ptr %next20, i32 0, i32 0
  store ptr %17, ptr %le_next21, align 8
  %cmp22 = icmp ne ptr %17, null
  br i1 %cmp22, label %if.then23, label %if.end30

if.then23:                                        ; preds = %do.body18
  %19 = load ptr, ptr %pdu, align 8
  %next24 = getelementptr inbounds %struct.V9fsPDU, ptr %19, i32 0, i32 6
  %le_next25 = getelementptr inbounds %struct.anon.2, ptr %next24, i32 0, i32 0
  %20 = load ptr, ptr %s.addr, align 8
  %active_list26 = getelementptr inbounds %struct.V9fsState, ptr %20, i32 0, i32 1
  %lh_first27 = getelementptr inbounds %struct.anon.0, ptr %active_list26, i32 0, i32 0
  %21 = load ptr, ptr %lh_first27, align 8
  %next28 = getelementptr inbounds %struct.V9fsPDU, ptr %21, i32 0, i32 6
  %le_prev29 = getelementptr inbounds %struct.anon.2, ptr %next28, i32 0, i32 1
  store ptr %le_next25, ptr %le_prev29, align 8
  br label %if.end30

if.end30:                                         ; preds = %if.then23, %do.body18
  %22 = load ptr, ptr %pdu, align 8
  %23 = load ptr, ptr %s.addr, align 8
  %active_list31 = getelementptr inbounds %struct.V9fsState, ptr %23, i32 0, i32 1
  %lh_first32 = getelementptr inbounds %struct.anon.0, ptr %active_list31, i32 0, i32 0
  store ptr %22, ptr %lh_first32, align 8
  %24 = load ptr, ptr %s.addr, align 8
  %active_list33 = getelementptr inbounds %struct.V9fsState, ptr %24, i32 0, i32 1
  %lh_first34 = getelementptr inbounds %struct.anon.0, ptr %active_list33, i32 0, i32 0
  %25 = load ptr, ptr %pdu, align 8
  %next35 = getelementptr inbounds %struct.V9fsPDU, ptr %25, i32 0, i32 6
  %le_prev36 = getelementptr inbounds %struct.anon.2, ptr %next35, i32 0, i32 1
  store ptr %lh_first34, ptr %le_prev36, align 8
  br label %do.end37

do.end37:                                         ; preds = %if.end30
  br label %if.end38

if.end38:                                         ; preds = %do.end37, %entry
  %26 = load ptr, ptr %pdu, align 8
  ret ptr %26
}