; Function Attrs: mustprogress nofree norecurse nosync nounwind sspstrong willreturn memory(readwrite, inaccessiblemem: none) uwtable
define dso_local ptr @pdu_alloc(ptr noundef %s) local_unnamed_addr #7 {
entry:
  %0 = load ptr, ptr %s, align 8
  %cmp = icmp eq ptr %0, null
  br i1 %cmp, label %if.end38, label %if.then

if.then:                                          ; preds = %entry
  %next = getelementptr inbounds nuw i8, ptr %0, i64 32
  %1 = load ptr, ptr %next, align 8
  %cmp3.not = icmp eq ptr %1, null
  %le_prev13.phi.trans.insert = getelementptr inbounds nuw i8, ptr %0, i64 40
  %.pre18 = load ptr, ptr %le_prev13.phi.trans.insert, align 8
  br i1 %cmp3.not, label %if.end, label %if.then4

if.then4:                                         ; preds = %if.then
  %le_prev9 = getelementptr inbounds nuw i8, ptr %1, i64 40
  store ptr %.pre18, ptr %le_prev9, align 8
  %.pre = load ptr, ptr %next, align 8
  br label %if.end

if.end:                                           ; preds = %if.then, %if.then4
  %2 = phi ptr [ %.pre, %if.then4 ], [ null, %if.then ]
  %le_prev13 = getelementptr inbounds nuw i8, ptr %0, i64 40
  store ptr %2, ptr %.pre18, align 8
  %active_list = getelementptr inbounds nuw i8, ptr %s, i64 8
  tail call void @llvm.memset.p0.i64(ptr noundef nonnull align 8 dereferenceable(16) %next, i8 0, i64 16, i1 false)
  %3 = load ptr, ptr %active_list, align 8
  store ptr %3, ptr %next, align 8
  %cmp22.not = icmp eq ptr %3, null
  br i1 %cmp22.not, label %if.end30, label %if.then23

if.then23:                                        ; preds = %if.end
  %le_prev29 = getelementptr inbounds nuw i8, ptr %3, i64 40
  store ptr %next, ptr %le_prev29, align 8
  br label %if.end30

if.end30:                                         ; preds = %if.then23, %if.end
  store ptr %0, ptr %active_list, align 8
  store ptr %active_list, ptr %le_prev13, align 8
  br label %if.end38

if.end38:                                         ; preds = %if.end30, %entry
  ret ptr %0
}